#include <math.h>
#include <stdio.h>
#include <stdlib.h>
#include <string.h>

int main()
{
	int i,n,m,a[100];
	int *p1,*p2,*p3,*p4;
	scanf("%d %d",&n,&m);
	for(i=0;i<n;i++)
	{
		scanf("%d",&a[i]);
	}
	p1=&a[0];
	p4=p2=&a[n-m];
	p3=&a[n-1];
	printf("%d",*p2);
	p2++;
	for(;p2<=p3;p2++)
	{
		printf(" %d",*p2);
	}
	for(;p1<p4;p1++)
	{
		printf(" %d",*p1);
	}
 	return 0;
}