; ModuleID = '52/5569.c'
source_filename = "52/5569.c"
target datalayout = "e-m:e-p270:32:32-p271:32:32-p272:64:64-i64:64-f80:128-n8:16:32:64-S128"
target triple = "x86_64-pc-linux-gnu"

@.str = private unnamed_addr constant [6 x i8] c"%d %d\00", align 1
@.str.1 = private unnamed_addr constant [3 x i8] c"%d\00", align 1
@.str.2 = private unnamed_addr constant [4 x i8] c" %d\00", align 1

; Function Attrs: noinline nounwind uwtable
define dso_local i32 @main() #0 {
  %1 = alloca i32, align 4
  %2 = alloca i32, align 4
  %3 = alloca i32, align 4
  %4 = alloca i32, align 4
  %5 = alloca [100 x i32], align 16
  %6 = alloca i32*, align 8
  %7 = alloca i32*, align 8
  %8 = alloca i32*, align 8
  %9 = alloca i32*, align 8
  store i32 0, i32* %1, align 4
  %10 = call i32 (i8*, ...) @__isoc99_scanf(i8* getelementptr inbounds ([6 x i8], [6 x i8]* @.str, i64 0, i64 0), i32* %3, i32* %4)
  store i32 0, i32* %2, align 4
  br label %11

11:                                               ; preds = %20, %0
  %12 = load i32, i32* %2, align 4
  %13 = load i32, i32* %3, align 4
  %14 = icmp slt i32 %12, %13
  br i1 %14, label %15, label %23

15:                                               ; preds = %11
  %16 = load i32, i32* %2, align 4
  %17 = sext i32 %16 to i64
  %18 = getelementptr inbounds [100 x i32], [100 x i32]* %5, i64 0, i64 %17
  %19 = call i32 (i8*, ...) @__isoc99_scanf(i8* getelementptr inbounds ([3 x i8], [3 x i8]* @.str.1, i64 0, i64 0), i32* %18)
  br label %20

20:                                               ; preds = %15
  %21 = load i32, i32* %2, align 4
  %22 = add nsw i32 %21, 1
  store i32 %22, i32* %2, align 4
  br label %11

23:                                               ; preds = %11
  %24 = getelementptr inbounds [100 x i32], [100 x i32]* %5, i64 0, i64 0
  store i32* %24, i32** %6, align 8
  %25 = load i32, i32* %3, align 4
  %26 = load i32, i32* %4, align 4
  %27 = sub nsw i32 %25, %26
  %28 = sext i32 %27 to i64
  %29 = getelementptr inbounds [100 x i32], [100 x i32]* %5, i64 0, i64 %28
  store i32* %29, i32** %7, align 8
  store i32* %29, i32** %9, align 8
  %30 = load i32, i32* %3, align 4
  %31 = sub nsw i32 %30, 1
  %32 = sext i32 %31 to i64
  %33 = getelementptr inbounds [100 x i32], [100 x i32]* %5, i64 0, i64 %32
  store i32* %33, i32** %8, align 8
  %34 = load i32*, i32** %7, align 8
  %35 = load i32, i32* %34, align 4
  %36 = call i32 (i8*, ...) @printf(i8* getelementptr inbounds ([3 x i8], [3 x i8]* @.str.1, i64 0, i64 0), i32 %35)
  %37 = load i32*, i32** %7, align 8
  %38 = getelementptr inbounds i32, i32* %37, i32 1
  store i32* %38, i32** %7, align 8
  br label %39

39:                                               ; preds = %47, %23
  %40 = load i32*, i32** %7, align 8
  %41 = load i32*, i32** %8, align 8
  %42 = icmp ule i32* %40, %41
  br i1 %42, label %43, label %50

43:                                               ; preds = %39
  %44 = load i32*, i32** %7, align 8
  %45 = load i32, i32* %44, align 4
  %46 = call i32 (i8*, ...) @printf(i8* getelementptr inbounds ([4 x i8], [4 x i8]* @.str.2, i64 0, i64 0), i32 %45)
  br label %47

47:                                               ; preds = %43
  %48 = load i32*, i32** %7, align 8
  %49 = getelementptr inbounds i32, i32* %48, i32 1
  store i32* %49, i32** %7, align 8
  br label %39

50:                                               ; preds = %39
  br label %51

51:                                               ; preds = %59, %50
  %52 = load i32*, i32** %6, align 8
  %53 = load i32*, i32** %9, align 8
  %54 = icmp ult i32* %52, %53
  br i1 %54, label %55, label %62

55:                                               ; preds = %51
  %56 = load i32*, i32** %6, align 8
  %57 = load i32, i32* %56, align 4
  %58 = call i32 (i8*, ...) @printf(i8* getelementptr inbounds ([4 x i8], [4 x i8]* @.str.2, i64 0, i64 0), i32 %57)
  br label %59

59:                                               ; preds = %55
  %60 = load i32*, i32** %6, align 8
  %61 = getelementptr inbounds i32, i32* %60, i32 1
  store i32* %61, i32** %6, align 8
  br label %51

62:                                               ; preds = %51
  ret i32 0
}

declare dso_local i32 @__isoc99_scanf(i8*, ...) #1

declare dso_local i32 @printf(i8*, ...) #1


!llvm.module.flags = !{!0}
!llvm.ident = !{!1}

!0 = !{i32 1, !"wchar_size", i32 4}
!1 = !{!"clang version 10.0.0-4ubuntu1 "}
